; ModuleID = '27/2209.cpp'
source_filename = "27/2209.cpp"
target datalayout = "e-m:e-p270:32:32-p271:32:32-p272:64:64-i64:64-f80:128-n8:16:32:64-S128"
target triple = "x86_64-pc-linux-gnu"

%"class.std::ios_base::Init" = type { i8 }
%"class.std::basic_istream" = type { i32 (...)**, i64, %"class.std::basic_ios" }
%"class.std::basic_ios" = type { %"class.std::ios_base", %"class.std::basic_ostream"*, i8, i8, %"class.std::basic_streambuf"*, %"class.std::ctype"*, %"class.std::num_put"*, %"class.std::num_get"* }
%"class.std::ios_base" = type { i32 (...)**, i64, i64, i32, i32, i32, %"struct.std::ios_base::_Callback_list"*, %"struct.std::ios_base::_Words", [8 x %"struct.std::ios_base::_Words"], i32, %"struct.std::ios_base::_Words"*, %"class.std::locale" }
%"struct.std::ios_base::_Callback_list" = type { %"struct.std::ios_base::_Callback_list"*, void (i32, %"class.std::ios_base"*, i32)*, i32, i32 }
%"struct.std::ios_base::_Words" = type { i8*, i64 }
%"class.std::locale" = type { %"class.std::locale::_Impl"* }
%"class.std::locale::_Impl" = type { i32, %"class.std::locale::facet"**, i64, %"class.std::locale::facet"**, i8** }
%"class.std::locale::facet" = type <{ i32 (...)**, i32, [4 x i8] }>
%"class.std::basic_ostream" = type { i32 (...)**, %"class.std::basic_ios" }
%"class.std::basic_streambuf" = type { i32 (...)**, i8*, i8*, i8*, i8*, i8*, i8*, %"class.std::locale" }
%"class.std::ctype" = type <{ %"class.std::locale::facet.base", [4 x i8], %struct.__locale_struct*, i8, [7 x i8], i32*, i32*, i16*, i8, [256 x i8], [256 x i8], i8, [6 x i8] }>
%"class.std::locale::facet.base" = type <{ i32 (...)**, i32 }>
%struct.__locale_struct = type { [13 x %struct.__locale_data*], i16*, i32*, i32*, [13 x i8*] }
%struct.__locale_data = type opaque
%"class.std::num_put" = type { %"class.std::locale::facet.base", [4 x i8] }
%"class.std::num_get" = type { %"class.std::locale::facet.base", [4 x i8] }

@_ZStL8__ioinit = internal global %"class.std::ios_base::Init" zeroinitializer, align 1
@__dso_handle = external hidden global i8
@_ZSt3cin = external dso_local global %"class.std::basic_istream", align 8
@.str = private unnamed_addr constant [8 x i8] c"x1=%.5f\00", align 1
@.str.1 = private unnamed_addr constant [6 x i8] c"+%.5f\00", align 1
@.str.2 = private unnamed_addr constant [10 x i8] c"i;x2=%.5f\00", align 1
@.str.3 = private unnamed_addr constant [6 x i8] c"-%.5f\00", align 1
@.str.4 = private unnamed_addr constant [2 x i8] c"i\00", align 1
@.str.5 = private unnamed_addr constant [2 x i8] c"\0A\00", align 1
@.str.6 = private unnamed_addr constant [11 x i8] c"x1=x2=%.5f\00", align 1
@.str.7 = private unnamed_addr constant [9 x i8] c";x2=%.5f\00", align 1
@llvm.global_ctors = appending global [1 x { i32, void ()*, i8* }] [{ i32, void ()*, i8* } { i32 65535, void ()* @_GLOBAL__sub_I_2209.cpp, i8* null }]

; Function Attrs: noinline uwtable
define internal void @__cxx_global_var_init() #0 section ".text.startup" {
  call void @_ZNSt8ios_base4InitC1Ev(%"class.std::ios_base::Init"* @_ZStL8__ioinit)
  %1 = call i32 @__cxa_atexit(void (i8*)* bitcast (void (%"class.std::ios_base::Init"*)* @_ZNSt8ios_base4InitD1Ev to void (i8*)*), i8* getelementptr inbounds (%"class.std::ios_base::Init", %"class.std::ios_base::Init"* @_ZStL8__ioinit, i32 0, i32 0), i8* @__dso_handle) #3
  ret void
}

declare dso_local void @_ZNSt8ios_base4InitC1Ev(%"class.std::ios_base::Init"*) unnamed_addr #1

; Function Attrs: nounwind
declare dso_local void @_ZNSt8ios_base4InitD1Ev(%"class.std::ios_base::Init"*) unnamed_addr #2

; Function Attrs: nounwind
declare dso_local i32 @__cxa_atexit(void (i8*)*, i8*, i8*) #3

; Function Attrs: noinline norecurse uwtable
define dso_local i32 @main() #4 {
  %1 = alloca i32, align 4
  %2 = alloca i32, align 4
  %3 = alloca double, align 8
  %4 = alloca double, align 8
  %5 = alloca double, align 8
  %6 = alloca double, align 8
  %7 = alloca double, align 8
  %8 = alloca double, align 8
  %9 = alloca double, align 8
  %10 = alloca i32, align 4
  store i32 0, i32* %1, align 4
  %11 = call dereferenceable(280) %"class.std::basic_istream"* @_ZNSirsERi(%"class.std::basic_istream"* @_ZSt3cin, i32* dereferenceable(4) %2)
  store i32 1, i32* %10, align 4
  br label %12

12:                                               ; preds = %130, %0
  %13 = load i32, i32* %10, align 4
  %14 = load i32, i32* %2, align 4
  %15 = icmp sle i32 %13, %14
  br i1 %15, label %16, label %133

16:                                               ; preds = %12
  %17 = call dereferenceable(280) %"class.std::basic_istream"* @_ZNSirsERd(%"class.std::basic_istream"* @_ZSt3cin, double* dereferenceable(8) %3)
  %18 = call dereferenceable(280) %"class.std::basic_istream"* @_ZNSirsERd(%"class.std::basic_istream"* %17, double* dereferenceable(8) %4)
  %19 = call dereferenceable(280) %"class.std::basic_istream"* @_ZNSirsERd(%"class.std::basic_istream"* %18, double* dereferenceable(8) %5)
  %20 = load double, double* %4, align 8
  %21 = load double, double* %4, align 8
  %22 = fmul double %20, %21
  %23 = load double, double* %3, align 8
  %24 = fmul double 4.000000e+00, %23
  %25 = load double, double* %5, align 8
  %26 = fmul double %24, %25
  %27 = fsub double %22, %26
  %28 = fcmp olt double %27, 0.000000e+00
  br i1 %28, label %29, label %63

29:                                               ; preds = %16
  %30 = load double, double* %4, align 8
  %31 = fneg double %30
  %32 = load double, double* %3, align 8
  %33 = fmul double 2.000000e+00, %32
  %34 = fdiv double %31, %33
  store double %34, double* %8, align 8
  %35 = load double, double* %3, align 8
  %36 = fmul double 4.000000e+00, %35
  %37 = load double, double* %5, align 8
  %38 = fmul double %36, %37
  %39 = load double, double* %4, align 8
  %40 = load double, double* %4, align 8
  %41 = fmul double %39, %40
  %42 = fsub double %38, %41
  %43 = call double @sqrt(double %42) #3
  %44 = load double, double* %3, align 8
  %45 = fmul double 2.000000e+00, %44
  %46 = fdiv double %43, %45
  store double %46, double* %9, align 8
  %47 = load double, double* %8, align 8
  %48 = fcmp oeq double %47, 0.000000e+00
  br i1 %48, label %49, label %52

49:                                               ; preds = %29
  %50 = load double, double* %8, align 8
  %51 = fneg double %50
  store double %51, double* %8, align 8
  br label %52

52:                                               ; preds = %49, %29
  %53 = load double, double* %8, align 8
  %54 = call i32 (i8*, ...) @printf(i8* getelementptr inbounds ([8 x i8], [8 x i8]* @.str, i64 0, i64 0), double %53)
  %55 = load double, double* %9, align 8
  %56 = call i32 (i8*, ...) @printf(i8* getelementptr inbounds ([6 x i8], [6 x i8]* @.str.1, i64 0, i64 0), double %55)
  %57 = load double, double* %8, align 8
  %58 = call i32 (i8*, ...) @printf(i8* getelementptr inbounds ([10 x i8], [10 x i8]* @.str.2, i64 0, i64 0), double %57)
  %59 = load double, double* %9, align 8
  %60 = call i32 (i8*, ...) @printf(i8* getelementptr inbounds ([6 x i8], [6 x i8]* @.str.3, i64 0, i64 0), double %59)
  %61 = call i32 (i8*, ...) @printf(i8* getelementptr inbounds ([2 x i8], [2 x i8]* @.str.4, i64 0, i64 0))
  %62 = call i32 (i8*, ...) @printf(i8* getelementptr inbounds ([2 x i8], [2 x i8]* @.str.5, i64 0, i64 0))
  br label %129

63:                                               ; preds = %16
  %64 = load double, double* %4, align 8
  %65 = load double, double* %4, align 8
  %66 = fmul double %64, %65
  %67 = load double, double* %3, align 8
  %68 = fmul double 4.000000e+00, %67
  %69 = load double, double* %5, align 8
  %70 = fmul double %68, %69
  %71 = fsub double %66, %70
  %72 = fcmp oeq double %71, 0.000000e+00
  br i1 %72, label %73, label %92

73:                                               ; preds = %63
  %74 = load double, double* %4, align 8
  %75 = fneg double %74
  %76 = load double, double* %4, align 8
  %77 = load double, double* %4, align 8
  %78 = fmul double %76, %77
  %79 = load double, double* %3, align 8
  %80 = fmul double 4.000000e+00, %79
  %81 = load double, double* %5, align 8
  %82 = fmul double %80, %81
  %83 = fsub double %78, %82
  %84 = call double @sqrt(double %83) #3
  %85 = fadd double %75, %84
  %86 = load double, double* %3, align 8
  %87 = fmul double 2.000000e+00, %86
  %88 = fdiv double %85, %87
  store double %88, double* %6, align 8
  %89 = load double, double* %6, align 8
  %90 = call i32 (i8*, ...) @printf(i8* getelementptr inbounds ([11 x i8], [11 x i8]* @.str.6, i64 0, i64 0), double %89)
  %91 = call i32 (i8*, ...) @printf(i8* getelementptr inbounds ([2 x i8], [2 x i8]* @.str.5, i64 0, i64 0))
  br label %128

92:                                               ; preds = %63
  %93 = load double, double* %4, align 8
  %94 = fneg double %93
  %95 = load double, double* %4, align 8
  %96 = load double, double* %4, align 8
  %97 = fmul double %95, %96
  %98 = load double, double* %3, align 8
  %99 = fmul double 4.000000e+00, %98
  %100 = load double, double* %5, align 8
  %101 = fmul double %99, %100
  %102 = fsub double %97, %101
  %103 = call double @sqrt(double %102) #3
  %104 = fadd double %94, %103
  %105 = load double, double* %3, align 8
  %106 = fmul double 2.000000e+00, %105
  %107 = fdiv double %104, %106
  store double %107, double* %6, align 8
  %108 = load double, double* %4, align 8
  %109 = fneg double %108
  %110 = load double, double* %4, align 8
  %111 = load double, double* %4, align 8
  %112 = fmul double %110, %111
  %113 = load double, double* %3, align 8
  %114 = fmul double 4.000000e+00, %113
  %115 = load double, double* %5, align 8
  %116 = fmul double %114, %115
  %117 = fsub double %112, %116
  %118 = call double @sqrt(double %117) #3
  %119 = fsub double %109, %118
  %120 = load double, double* %3, align 8
  %121 = fmul double 2.000000e+00, %120
  %122 = fdiv double %119, %121
  store double %122, double* %7, align 8
  %123 = load double, double* %6, align 8
  %124 = call i32 (i8*, ...) @printf(i8* getelementptr inbounds ([8 x i8], [8 x i8]* @.str, i64 0, i64 0), double %123)
  %125 = load double, double* %7, align 8
  %126 = call i32 (i8*, ...) @printf(i8* getelementptr inbounds ([9 x i8], [9 x i8]* @.str.7, i64 0, i64 0), double %125)
  %127 = call i32 (i8*, ...) @printf(i8* getelementptr inbounds ([2 x i8], [2 x i8]* @.str.5, i64 0, i64 0))
  br label %128

128:                                              ; preds = %92, %73
  br label %129

129:                                              ; preds = %128, %52
  br label %130

130:                                              ; preds = %129
  %131 = load i32, i32* %10, align 4
  %132 = add nsw i32 %131, 1
  store i32 %132, i32* %10, align 4
  br label %12

133:                                              ; preds = %12
  ret i32 0
}

declare dso_local dereferenceable(280) %"class.std::basic_istream"* @_ZNSirsERi(%"class.std::basic_istream"*, i32* dereferenceable(4)) #1

declare dso_local dereferenceable(280) %"class.std::basic_istream"* @_ZNSirsERd(%"class.std::basic_istream"*, double* dereferenceable(8)) #1

; Function Attrs: nounwind
declare dso_local double @sqrt(double) #2

declare dso_local i32 @printf(i8*, ...) #1

; Function Attrs: noinline uwtable
define internal void @_GLOBAL__sub_I_2209.cpp() #0 section ".text.startup" {
  call void @__cxx_global_var_init()
  ret void
}


!llvm.module.flags = !{!0}
!llvm.ident = !{!1}

!0 = !{i32 1, !"wchar_size", i32 4}
!1 = !{!"clang version 10.0.0-4ubuntu1 "}
